target datalayout = "e-m:e-p270:32:32-p271:32:32-p272:64:64-i64:64-i128:128-f80:128-n8:16:32:64-S128"
target triple = "x86_64-pc-linux-gnu"

%class.Metadata = type { ptr }
%class.methodHandle = type { ptr, ptr }
%class.MethodData = type { %class.Metadata, ptr, i32, i32, %class.Mutex, %"class.MethodData::CompilerCounters", i64, i64, i64, i64, i32, %class.InvocationCounter, %class.InvocationCounter, i32, i32, i32, i32, i32, i16, i16, i32, ptr, i32, i32, i32, i32, [1 x i64] }
%class.Mutex = type { ptr, %class.PlatformMonitor, ptr }
%class.PlatformMonitor = type { %class.PlatformMutex, %union.pthread_cond_t }
%class.PlatformMutex = type { %union.pthread_mutex_t }
%union.pthread_mutex_t = type { %struct.__pthread_mutex_s }
%struct.__pthread_mutex_s = type { i32, i32, i32, i32, i32, i16, i16, %struct.__pthread_internal_list }
%struct.__pthread_internal_list = type { ptr, ptr }
%union.pthread_cond_t = type { %struct.__pthread_cond_s }
%struct.__pthread_cond_s = type { %union.__atomic_wide_counter, %union.__atomic_wide_counter, [2 x i32], [2 x i32], i32, i32, [2 x i32] }
%union.__atomic_wide_counter = type { i64 }
%"class.MethodData::CompilerCounters" = type { i32, i32, i32, %union.anon.1 }
%union.anon.1 = type { i64, [56 x i8] }
%class.InvocationCounter = type { i32 }
%class.GrowableArrayBase = type { i32, i32 }
%class.Thread = type { %class.ThreadShadow.base, i64, [43 x i64], ptr, ptr, i32, ptr, i64, i64, %class.ThreadLocalAllocBuffer, i64, %class.ThreadHeapSampler, %class.ThreadStatisticalInfo, %class.JfrThreadLocal, ptr, ptr, ptr, ptr, ptr, ptr, i64, i32, i32, ptr, i32, i32, i32, i32, i8, ptr }
%class.ThreadShadow.base = type <{ ptr, ptr, ptr, i32 }>
%class.ThreadLocalAllocBuffer = type <{ ptr, ptr, ptr, ptr, ptr, i64, i64, i64, i64, i32, i32, i32, i32, i64, %class.AdaptiveWeightedAverage, [4 x i8] }>
%class.AdaptiveWeightedAverage = type { float, i32, i32, i8, float }
%class.ThreadHeapSampler = type { i64 }
%class.ThreadStatisticalInfo = type { i64, i64 }
%class.JfrThreadLocal = type <{ ptr, ptr, ptr, ptr, ptr, ptr, ptr, ptr, ptr, ptr, %class.RefCountHandle, i64, i64, i64, i64, i64, i64, i64, i64, i64, i64, i64, i32, i32, i32, i16, i8, i8, i8, i8, i8, [5 x i8] }>
%class.RefCountHandle = type { ptr }
%class.GrowableArrayView.13 = type { %class.GrowableArrayBase, ptr }

@Tier0InvokeNotifyFreqLog = external global i64, align 8
@Tier0BackedgeNotifyFreqLog = external global i64, align 8
@_ZN6Thread12_thr_currentE = external thread_local global ptr, align 8

; Function Attrs: mustprogress nounwind uwtable
define linkonce_odr hidden noundef i32 @_ZN21CountLeadingZerosImplIiLm4EE4doitEi(i32 noundef %0) #1 comdat align 2 {
  %2 = alloca i32, align 4
  store i32 %0, ptr %2, align 4
  %3 = load i32, ptr %2, align 4
  %4 = call i32 @llvm.ctlz.i32(i32 %3, i1 true)
  ret i32 %4
}

; Function Attrs: mustprogress nounwind uwtable
define linkonce_odr hidden noundef i32 @_Z19count_leading_zerosIiEjT_(i32 noundef %0) #1 comdat {
  %2 = alloca i32, align 4
  store i32 %0, ptr %2, align 4
  %3 = load i32, ptr %2, align 4
  %4 = call noundef i32 @_ZN21CountLeadingZerosImplIiLm4EE4doitEi(i32 noundef %3)
  ret i32 %4
}

; Function Attrs: mustprogress nounwind uwtable
define linkonce_odr hidden noundef i32 @_Z5log2iIiTnNSt9enable_ifIXcvbsr3std11is_integralIT_EE5valueEiE4typeELi0EEiS1_(i32 noundef %0) #1 comdat {
  %2 = alloca i32, align 4
  %3 = alloca i32, align 4
  store i32 %0, ptr %2, align 4
  store i32 32, ptr %3, align 4
  %4 = load i32, ptr %2, align 4
  %5 = call noundef i32 @_Z19count_leading_zerosIiEjT_(i32 noundef %4)
  %6 = sub i32 32, %5
  %7 = sub i32 %6, 1
  ret i32 %7
}

; Function Attrs: mustprogress nounwind uwtable
define linkonce_odr hidden noundef zeroext i1 @_Z13is_power_of_2IiTnNSt9enable_ifIXcvbsr3std11is_integralIT_EE5valueEiE4typeELi0EEbS1_(i32 noundef %0) #1 comdat {
  %2 = alloca i32, align 4
  store i32 %0, ptr %2, align 4
  %3 = load i32, ptr %2, align 4
  %4 = icmp sgt i32 %3, 0
  br i1 %4, label %5, label %11

5:                                                ; preds = %1
  %6 = load i32, ptr %2, align 4
  %7 = load i32, ptr %2, align 4
  %8 = sub nsw i32 %7, 1
  %9 = and i32 %6, %8
  %10 = icmp eq i32 %9, 0
  br label %11

11:                                               ; preds = %5, %1
  %12 = phi i1 [ false, %1 ], [ %10, %5 ]
  ret i1 %12
}

; Function Attrs: mustprogress nounwind uwtable
define linkonce_odr hidden noundef i32 @_Z19round_up_power_of_2IiTnNSt9enable_ifIXcvbsr3std11is_integralIT_EE5valueEiE4typeELi0EES1_S1_(i32 noundef %0) #1 comdat {
  %2 = alloca i32, align 4
  %3 = alloca i32, align 4
  store i32 %0, ptr %3, align 4
  %4 = load i32, ptr %3, align 4
  %5 = call noundef zeroext i1 @_Z13is_power_of_2IiTnNSt9enable_ifIXcvbsr3std11is_integralIT_EE5valueEiE4typeELi0EEbS1_(i32 noundef %4)
  br i1 %5, label %6, label %8

6:                                                ; preds = %1
  %7 = load i32, ptr %3, align 4
  store i32 %7, ptr %2, align 4
  br label %13

8:                                                ; preds = %1
  %9 = load i32, ptr %3, align 4
  %10 = call noundef i32 @_Z5log2iIiTnNSt9enable_ifIXcvbsr3std11is_integralIT_EE5valueEiE4typeELi0EEiS1_(i32 noundef %9)
  %11 = add nsw i32 %10, 1
  %12 = shl i32 1, %11
  store i32 %12, ptr %2, align 4
  br label %13

13:                                               ; preds = %8, %6
  %14 = load i32, ptr %2, align 4
  ret i32 %14
}

; Function Attrs: mustprogress nounwind uwtable
define linkonce_odr hidden noundef i32 @_Z15next_power_of_2IiTnNSt9enable_ifIXcvbsr3std11is_integralIT_EE5valueEiE4typeELi0EES1_S1_(i32 noundef %0) #1 comdat {
  %2 = alloca i32, align 4
  store i32 %0, ptr %2, align 4
  %3 = load i32, ptr %2, align 4
  %4 = add nsw i32 %3, 1
  %5 = call noundef i32 @_Z19round_up_power_of_2IiTnNSt9enable_ifIXcvbsr3std11is_integralIT_EE5valueEiE4typeELi0EES1_S1_(i32 noundef %4)
  ret i32 %5
}

; Function Attrs: mustprogress nounwind uwtable
define linkonce_odr hidden void @_ZN26GrowableArrayWithAllocatorIP8Metadata13GrowableArrayIS1_EE4growEi(ptr noundef nonnull align 8 dereferenceable(16) %0, i32 noundef %1) #1 comdat align 2 {
  %3 = alloca ptr, align 8
  %4 = alloca i32, align 4
  store ptr %0, ptr %3, align 8
  store i32 %1, ptr %4, align 4
  %5 = load ptr, ptr %3, align 8
  %6 = load i32, ptr %4, align 4
  %7 = call noundef i32 @_Z15next_power_of_2IiTnNSt9enable_ifIXcvbsr3std11is_integralIT_EE5valueEiE4typeELi0EES1_S1_(i32 noundef %6)
  call void @_ZN26GrowableArrayWithAllocatorIP8Metadata13GrowableArrayIS1_EE9expand_toEi(ptr noundef nonnull align 8 dereferenceable(16) %5, i32 noundef %7)
  ret void
}

; Function Attrs: mustprogress nounwind uwtable
define linkonce_odr hidden void @_ZN4Copy16pd_fill_to_wordsEPP12HeapWordImplmj(ptr noundef %0, i64 noundef %1, i32 noundef %2) #1 comdat align 2 {
  %4 = alloca ptr, align 8
  %5 = alloca i64, align 8
  %6 = alloca i32, align 4
  %7 = alloca ptr, align 8
  %8 = alloca i64, align 8
  store ptr %0, ptr %4, align 8
  store i64 %1, ptr %5, align 8
  store i32 %2, ptr %6, align 4
  %9 = load ptr, ptr %4, align 8
  store ptr %9, ptr %7, align 8
  %10 = load i32, ptr %6, align 4
  %11 = zext i32 %10 to i64
  %12 = shl i64 %11, 32
  %13 = load i32, ptr %6, align 4
  %14 = zext i32 %13 to i64
  %15 = or i64 %12, %14
  store i64 %15, ptr %8, align 8
  br label %16

16:                                               ; preds = %20, %3
  %17 = load i64, ptr %5, align 8
  %18 = add i64 %17, -1
  store i64 %18, ptr %5, align 8
  %19 = icmp ugt i64 %17, 0
  br i1 %19, label %20, label %24

20:                                               ; preds = %16
  %21 = load i64, ptr %8, align 8
  %22 = load ptr, ptr %7, align 8
  %23 = getelementptr inbounds i64, ptr %22, i32 1
  store ptr %23, ptr %7, align 8
  store i64 %21, ptr %22, align 8
  br label %16, !llvm.loop !53

24:                                               ; preds = %16
  ret void
}

; Function Attrs: mustprogress nounwind uwtable
define linkonce_odr hidden noundef i32 @_ZN26GrowableArrayWithAllocatorIP8Metadata13GrowableArrayIS1_EE6appendERKS1_(ptr noundef nonnull align 8 dereferenceable(16) %0, ptr noundef nonnull align 8 dereferenceable(8) %1) #1 comdat align 2 {
  %3 = alloca ptr, align 8
  %4 = alloca ptr, align 8
  %5 = alloca i32, align 4
  store ptr %0, ptr %3, align 8
  store ptr %1, ptr %4, align 8
  %6 = load ptr, ptr %3, align 8
  %7 = getelementptr inbounds %class.GrowableArrayBase, ptr %6, i32 0, i32 0
  %8 = load i32, ptr %7, align 8
  %9 = getelementptr inbounds %class.GrowableArrayBase, ptr %6, i32 0, i32 1
  %10 = load i32, ptr %9, align 4
  %11 = icmp eq i32 %8, %10
  br i1 %11, label %12, label %15

12:                                               ; preds = %2
  %13 = getelementptr inbounds %class.GrowableArrayBase, ptr %6, i32 0, i32 0
  %14 = load i32, ptr %13, align 8
  call void @_ZN26GrowableArrayWithAllocatorIP8Metadata13GrowableArrayIS1_EE4growEi(ptr noundef nonnull align 8 dereferenceable(16) %6, i32 noundef %14)
  br label %15

15:                                               ; preds = %12, %2
  %16 = getelementptr inbounds %class.GrowableArrayBase, ptr %6, i32 0, i32 0
  %17 = load i32, ptr %16, align 8
  %18 = add nsw i32 %17, 1
  store i32 %18, ptr %16, align 8
  store i32 %17, ptr %5, align 4
  %19 = load ptr, ptr %4, align 8
  %20 = load ptr, ptr %19, align 8
  %21 = getelementptr inbounds %class.GrowableArrayView.13, ptr %6, i32 0, i32 1
  %22 = load ptr, ptr %21, align 8
  %23 = load i32, ptr %5, align 4
  %24 = sext i32 %23 to i64
  %25 = getelementptr inbounds ptr, ptr %22, i64 %24
  store ptr %20, ptr %25, align 8
  %26 = load i32, ptr %5, align 4
  ret i32 %26
}

; Function Attrs: mustprogress nounwind uwtable
define linkonce_odr hidden void @_ZN4Copy16pd_zero_to_wordsEPP12HeapWordImplm(ptr noundef %0, i64 noundef %1) #1 comdat align 2 {
  %3 = alloca ptr, align 8
  %4 = alloca i64, align 8
  store ptr %0, ptr %3, align 8
  store i64 %1, ptr %4, align 8
  %5 = load ptr, ptr %3, align 8
  %6 = load i64, ptr %4, align 8
  call void @_ZN4Copy16pd_fill_to_wordsEPP12HeapWordImplmj(ptr noundef %5, i64 noundef %6, i32 noundef 0)
  ret void
}

; Function Attrs: mustprogress nounwind uwtable
define linkonce_odr hidden void @_ZN4Copy16assert_params_okEPP12HeapWordImpll(ptr noundef %0, i64 noundef %1) #1 comdat align 2 {
  %3 = alloca ptr, align 8
  %4 = alloca i64, align 8
  store ptr %0, ptr %3, align 8
  store i64 %1, ptr %4, align 8
  ret void
}

; Function Attrs: mustprogress nounwind uwtable
define linkonce_odr hidden void @_ZN26GrowableArrayWithAllocatorIP8Metadata13GrowableArrayIS1_EE4pushERKS1_(ptr noundef nonnull align 8 dereferenceable(16) %0, ptr noundef nonnull align 8 dereferenceable(8) %1) #1 comdat align 2 {
  %3 = alloca ptr, align 8
  %4 = alloca ptr, align 8
  store ptr %0, ptr %3, align 8
  store ptr %1, ptr %4, align 8
  %5 = load ptr, ptr %3, align 8
  %6 = load ptr, ptr %4, align 8
  %7 = call noundef i32 @_ZN26GrowableArrayWithAllocatorIP8Metadata13GrowableArrayIS1_EE6appendERKS1_(ptr noundef nonnull align 8 dereferenceable(16) %5, ptr noundef nonnull align 8 dereferenceable(8) %6)
  ret void
}

; Function Attrs: mustprogress nounwind uwtable
define linkonce_odr hidden noundef ptr @_ZNK6Thread16metadata_handlesEv(ptr noundef nonnull align 8 dereferenceable(888) %0) #1 comdat align 2 {
  %2 = alloca ptr, align 8
  store ptr %0, ptr %2, align 8
  %3 = load ptr, ptr %2, align 8
  %4 = getelementptr inbounds %class.Thread, ptr %3, i32 0, i32 18
  %5 = load ptr, ptr %4, align 8
  ret ptr %5
}

; Function Attrs: mustprogress nounwind uwtable
define linkonce_odr hidden noundef ptr @_ZN6Thread15current_or_nullEv() #1 comdat align 2 {
  %1 = call align 8 ptr @llvm.threadlocal.address.p0(ptr align 8 @_ZN6Thread12_thr_currentE)
  %2 = load ptr, ptr %1, align 8
  ret ptr %2
}

; Function Attrs: mustprogress nounwind uwtable
define linkonce_odr hidden void @_ZN4Copy13zero_to_wordsEPP12HeapWordImplm(ptr noundef %0, i64 noundef %1) #1 comdat align 2 {
  %3 = alloca ptr, align 8
  %4 = alloca i64, align 8
  store ptr %0, ptr %3, align 8
  store i64 %1, ptr %4, align 8
  %5 = load ptr, ptr %3, align 8
  call void @_ZN4Copy16assert_params_okEPP12HeapWordImpll(ptr noundef %5, i64 noundef 8)
  %6 = load ptr, ptr %3, align 8
  %7 = load i64, ptr %4, align 8
  call void @_ZN4Copy16pd_zero_to_wordsEPP12HeapWordImplm(ptr noundef %6, i64 noundef %7)
  ret void
}

; Function Attrs: mustprogress nounwind uwtable
define linkonce_odr hidden void @_ZN10MethodData17clear_escape_infoEv(ptr noundef nonnull align 8 dereferenceable(312) %0) #1 comdat align 2 {
  %2 = alloca ptr, align 8
  store ptr %0, ptr %2, align 8
  %3 = load ptr, ptr %2, align 8
  %4 = getelementptr inbounds %class.MethodData, ptr %3, i32 0, i32 9
  store i64 0, ptr %4, align 8
  %5 = getelementptr inbounds %class.MethodData, ptr %3, i32 0, i32 8
  store i64 0, ptr %5, align 8
  %6 = getelementptr inbounds %class.MethodData, ptr %3, i32 0, i32 7
  store i64 0, ptr %6, align 8
  %7 = getelementptr inbounds %class.MethodData, ptr %3, i32 0, i32 6
  store i64 0, ptr %7, align 8
  ret void
}

; Function Attrs: mustprogress nounwind uwtable
define linkonce_odr hidden void @_ZN12methodHandleC2EP6ThreadP6Method(ptr noundef nonnull align 8 dereferenceable(16) %0, ptr noundef %1, ptr noundef %2) unnamed_addr #1 comdat align 2 {
  %4 = alloca ptr, align 8
  %5 = alloca ptr, align 8
  %6 = alloca ptr, align 8
  %7 = alloca ptr, align 8
  store ptr %0, ptr %4, align 8
  store ptr %1, ptr %5, align 8
  store ptr %2, ptr %6, align 8
  %8 = load ptr, ptr %4, align 8
  %9 = getelementptr inbounds %class.methodHandle, ptr %8, i32 0, i32 0
  %10 = load ptr, ptr %6, align 8
  store ptr %10, ptr %9, align 8
  %11 = getelementptr inbounds %class.methodHandle, ptr %8, i32 0, i32 1
  %12 = load ptr, ptr %5, align 8
  store ptr %12, ptr %11, align 8
  %13 = load ptr, ptr %6, align 8
  %14 = icmp ne ptr %13, null
  br i1 %14, label %15, label %20

15:                                               ; preds = %3
  %16 = getelementptr inbounds %class.methodHandle, ptr %8, i32 0, i32 1
  %17 = load ptr, ptr %16, align 8
  %18 = call noundef ptr @_ZNK6Thread16metadata_handlesEv(ptr noundef nonnull align 8 dereferenceable(888) %17)
  %19 = load ptr, ptr %6, align 8
  store ptr %19, ptr %7, align 8
  call void @_ZN26GrowableArrayWithAllocatorIP8Metadata13GrowableArrayIS1_EE4pushERKS1_(ptr noundef nonnull align 8 dereferenceable(16) %18, ptr noundef nonnull align 8 dereferenceable(8) %7)
  br label %20

20:                                               ; preds = %15, %3
  ret void
}

; Function Attrs: mustprogress nounwind uwtable
define linkonce_odr hidden noundef ptr @_ZN6Thread7currentEv() #1 comdat align 2 {
  %1 = alloca ptr, align 8
  %2 = call noundef ptr @_ZN6Thread15current_or_nullEv()
  store ptr %2, ptr %1, align 8
  %3 = load ptr, ptr %1, align 8
  ret ptr %3
}

; Function Attrs: mustprogress nounwind uwtable
define linkonce_odr hidden void @_ZN10MethodData16CompilerCountersC2Ev(ptr noundef nonnull align 8 dereferenceable(80) %0) unnamed_addr #1 comdat align 2 {
  %2 = alloca ptr, align 8
  %3 = alloca i32, align 4
  store ptr %0, ptr %2, align 8
  %4 = load ptr, ptr %2, align 8
  %5 = getelementptr inbounds %"class.MethodData::CompilerCounters", ptr %4, i32 0, i32 0
  store i32 0, ptr %5, align 8
  %6 = getelementptr inbounds %"class.MethodData::CompilerCounters", ptr %4, i32 0, i32 1
  store i32 0, ptr %6, align 4
  %7 = getelementptr inbounds %"class.MethodData::CompilerCounters", ptr %4, i32 0, i32 2
  store i32 0, ptr %7, align 8
  store i32 8, ptr %3, align 4
  %8 = getelementptr inbounds %"class.MethodData::CompilerCounters", ptr %4, i32 0, i32 3
  %9 = load i32, ptr %3, align 4
  %10 = zext i32 %9 to i64
  call void @_ZN4Copy13zero_to_wordsEPP12HeapWordImplm(ptr noundef %8, i64 noundef %10)
  ret void
}

; Function Attrs: mustprogress nounwind uwtable
define hidden void @_ZN10MethodData4initEv(ptr noundef nonnull align 8 dereferenceable(312) %0) #1 align 2 {
  %2 = alloca ptr, align 8
  %3 = alloca %"class.MethodData::CompilerCounters", align 8
  %4 = alloca double, align 8
  %5 = alloca %class.methodHandle, align 8
  store ptr %0, ptr %2, align 8
  %6 = load ptr, ptr %2, align 8
  call void @_ZN10MethodData16CompilerCountersC2Ev(ptr noundef nonnull align 8 dereferenceable(80) %3)
  %7 = getelementptr inbounds %class.MethodData, ptr %6, i32 0, i32 5
  call void @llvm.memcpy.p0.p0.i64(ptr align 8 %7, ptr align 8 %3, i64 80, i1 false)
  %8 = getelementptr inbounds %class.MethodData, ptr %6, i32 0, i32 11
  call void @_ZN17InvocationCounter4initEv(ptr noundef nonnull align 4 dereferenceable(4) %8)
  %9 = getelementptr inbounds %class.MethodData, ptr %6, i32 0, i32 12
  call void @_ZN17InvocationCounter4initEv(ptr noundef nonnull align 4 dereferenceable(4) %9)
  %10 = getelementptr inbounds %class.MethodData, ptr %6, i32 0, i32 13
  store i32 0, ptr %10, align 4
  %11 = getelementptr inbounds %class.MethodData, ptr %6, i32 0, i32 14
  store i32 0, ptr %11, align 8
  store double 1.000000e+00, ptr %4, align 8
  %12 = call noundef ptr @_ZN6Thread7currentEv()
  %13 = getelementptr inbounds %class.MethodData, ptr %6, i32 0, i32 1
  %14 = load ptr, ptr %13, align 8
  call void @_ZN12methodHandleC2EP6ThreadP6Method(ptr noundef nonnull align 8 dereferenceable(16) %5, ptr noundef %12, ptr noundef %14)
  %15 = call noundef zeroext i1 @_ZN14CompilerOracle16has_option_valueIdEEbRK12methodHandle18CompileCommandEnumRT_(ptr noundef nonnull align 8 dereferenceable(16) %5, i32 noundef 28, ptr noundef nonnull align 8 dereferenceable(8) %4)
  %16 = load i64, ptr @Tier0InvokeNotifyFreqLog, align 8
  %17 = load double, ptr %4, align 8
  %18 = call noundef i64 @_ZN14CompilerConfig15scaled_freq_logEld(i64 noundef %16, double noundef %17)
  %19 = icmp sge i64 %18, 64
  br i1 %19, label %20, label %21

20:                                               ; preds = %1
  br label %26

21:                                               ; preds = %1
  %22 = load i64, ptr @Tier0InvokeNotifyFreqLog, align 8
  %23 = load double, ptr %4, align 8
  %24 = call noundef i64 @_ZN14CompilerConfig15scaled_freq_logEld(i64 noundef %22, double noundef %23)
  %25 = shl i64 1, %24
  br label %26

26:                                               ; preds = %21, %20
  %27 = phi i64 [ 0, %20 ], [ %25, %21 ]
  %28 = sub nsw i64 %27, 1
  %29 = trunc i64 %28 to i32
  %30 = shl i32 %29, 1
  %31 = getelementptr inbounds %class.MethodData, ptr %6, i32 0, i32 16
  store i32 %30, ptr %31, align 8
  %32 = load i64, ptr @Tier0BackedgeNotifyFreqLog, align 8
  %33 = load double, ptr %4, align 8
  %34 = call noundef i64 @_ZN14CompilerConfig15scaled_freq_logEld(i64 noundef %32, double noundef %33)
  %35 = icmp sge i64 %34, 64
  br i1 %35, label %36, label %37

36:                                               ; preds = %26
  br label %42

37:                                               ; preds = %26
  %38 = load i64, ptr @Tier0BackedgeNotifyFreqLog, align 8
  %39 = load double, ptr %4, align 8
  %40 = call noundef i64 @_ZN14CompilerConfig15scaled_freq_logEld(i64 noundef %38, double noundef %39)
  %41 = shl i64 1, %40
  br label %42

42:                                               ; preds = %37, %36
  %43 = phi i64 [ 0, %36 ], [ %41, %37 ]
  %44 = sub nsw i64 %43, 1
  %45 = trunc i64 %44 to i32
  %46 = shl i32 %45, 1
  %47 = getelementptr inbounds %class.MethodData, ptr %6, i32 0, i32 17
  store i32 %46, ptr %47, align 4
  %48 = getelementptr inbounds %class.MethodData, ptr %6, i32 0, i32 15
  store i32 0, ptr %48, align 4
  %49 = getelementptr inbounds %class.MethodData, ptr %6, i32 0, i32 18
  store i16 0, ptr %49, align 8
  %50 = getelementptr inbounds %class.MethodData, ptr %6, i32 0, i32 19
  store i16 0, ptr %50, align 2
  %51 = getelementptr inbounds %class.MethodData, ptr %6, i32 0, i32 20
  store i32 0, ptr %51, align 4
  %52 = getelementptr inbounds %class.MethodData, ptr %6, i32 0, i32 22
  store i32 0, ptr %52, align 8
  %53 = getelementptr inbounds %class.MethodData, ptr %6, i32 0, i32 21
  store ptr null, ptr %53, align 8
  call void @_ZN10MethodData17clear_escape_infoEv(ptr noundef nonnull align 8 dereferenceable(312) %6)
  call void @_ZN12methodHandleD1Ev(ptr noundef nonnull align 8 dereferenceable(16) %5) #11
  ret void
}