; Function Attrs: mustprogress nounwind uwtable
define hidden void @_ZN10MethodData4initEv(ptr noundef nonnull align 8 dereferenceable(312) %0) local_unnamed_addr #2 align 2 {
  %.sroa.4 = alloca [68 x i8], align 4
  %2 = alloca double, align 8
  %3 = alloca %class.methodHandle, align 8
  %.sroa.4.4..sroa_idx = getelementptr inbounds i8, ptr %.sroa.4, i64 4
  call void @llvm.memset.p0.i64(ptr noundef nonnull align 4 dereferenceable(64) %.sroa.4.4..sroa_idx, i8 0, i64 64, i1 false)
  %4 = getelementptr inbounds i8, ptr %0, i64 128
  store i32 0, ptr %4, align 8
  %.sroa.2.0..sroa_idx = getelementptr inbounds i8, ptr %0, i64 132
  store i32 0, ptr %.sroa.2.0..sroa_idx, align 4
  %.sroa.3.0..sroa_idx = getelementptr inbounds i8, ptr %0, i64 136
  store i32 0, ptr %.sroa.3.0..sroa_idx, align 8
  %.sroa.4.0..sroa_idx = getelementptr inbounds i8, ptr %0, i64 140
  call void @llvm.memcpy.p0.p0.i64(ptr noundef nonnull align 4 dereferenceable(68) %.sroa.4.0..sroa_idx, ptr noundef nonnull align 4 dereferenceable(68) %.sroa.4, i64 68, i1 false)
  %5 = getelementptr inbounds i8, ptr %0, i64 244
  tail call void @_ZN17InvocationCounter4initEv(ptr noundef nonnull align 4 dereferenceable(4) %5) #20
  %6 = getelementptr inbounds i8, ptr %0, i64 248
  tail call void @_ZN17InvocationCounter4initEv(ptr noundef nonnull align 4 dereferenceable(4) %6) #20
  %7 = getelementptr inbounds i8, ptr %0, i64 252
  store i32 0, ptr %7, align 4
  %8 = getelementptr inbounds i8, ptr %0, i64 256
  store i32 0, ptr %8, align 8
  store double 1.000000e+00, ptr %2, align 8
  %9 = tail call align 8 ptr @llvm.threadlocal.address.p0(ptr align 8 @_ZN6Thread12_thr_currentE)
  %10 = load ptr, ptr %9, align 8
  %11 = getelementptr inbounds i8, ptr %0, i64 8
  %12 = load ptr, ptr %11, align 8
  store ptr %12, ptr %3, align 8
  %13 = getelementptr inbounds i8, ptr %3, i64 8
  store ptr %10, ptr %13, align 8
  %.not.i = icmp eq ptr %12, null
  br i1 %.not.i, label %_ZN12methodHandleC2EP6ThreadP6Method.exit, label %14

14:                                               ; preds = %1
  %15 = getelementptr inbounds i8, ptr %10, i64 816
  %16 = load ptr, ptr %15, align 8
  %17 = load i32, ptr %16, align 8
  %18 = getelementptr inbounds i8, ptr %16, i64 4
  %19 = load i32, ptr %18, align 4
  %20 = icmp eq i32 %17, %19
  br i1 %20, label %21, label %_ZN26GrowableArrayWithAllocatorIP8Metadata13GrowableArrayIS1_EE4pushERKS1_.exit.i

21:                                               ; preds = %14
  %22 = add nsw i32 %17, 1
  %23 = icmp sgt i32 %17, -1
  %24 = xor i32 %17, -2147483648
  %25 = and i32 %24, %22
  %26 = icmp eq i32 %25, 0
  %27 = and i1 %23, %26
  %28 = tail call range(i32 0, 33) i32 @llvm.ctlz.i32(i32 %22, i1 true)
  %29 = sub nuw nsw i32 32, %28
  %30 = shl nuw i32 1, %29
  %.0.i.i.i.i.i.i = select i1 %27, i32 %22, i32 %30
  tail call void @_ZN26GrowableArrayWithAllocatorIP8Metadata13GrowableArrayIS1_EE9expand_toEi(ptr noundef nonnull align 8 dereferenceable(16) %16, i32 noundef %.0.i.i.i.i.i.i)
  %.pre.i.i.i = load i32, ptr %16, align 8
  br label %_ZN26GrowableArrayWithAllocatorIP8Metadata13GrowableArrayIS1_EE4pushERKS1_.exit.i

_ZN26GrowableArrayWithAllocatorIP8Metadata13GrowableArrayIS1_EE4pushERKS1_.exit.i: ; preds = %21, %14
  %31 = phi i32 [ %.pre.i.i.i, %21 ], [ %17, %14 ]
  %32 = add nsw i32 %31, 1
  store i32 %32, ptr %16, align 8
  %33 = getelementptr inbounds i8, ptr %16, i64 8
  %34 = load ptr, ptr %33, align 8
  %35 = sext i32 %31 to i64
  %36 = getelementptr inbounds ptr, ptr %34, i64 %35
  store ptr %12, ptr %36, align 8
  br label %_ZN12methodHandleC2EP6ThreadP6Method.exit

_ZN12methodHandleC2EP6ThreadP6Method.exit:        ; preds = %1, %_ZN26GrowableArrayWithAllocatorIP8Metadata13GrowableArrayIS1_EE4pushERKS1_.exit.i
  %37 = call noundef zeroext i1 @_ZN14CompilerOracle16has_option_valueIdEEbRK12methodHandle18CompileCommandEnumRT_(ptr noundef nonnull align 8 dereferenceable(16) %3, i32 noundef 28, ptr noundef nonnull align 8 dereferenceable(8) %2) #20
  %38 = load i64, ptr @Tier0InvokeNotifyFreqLog, align 8
  %39 = load double, ptr %2, align 8
  %40 = call noundef i64 @_ZN14CompilerConfig15scaled_freq_logEld(i64 noundef %38, double noundef %39) #20
  %41 = icmp sgt i64 %40, 63
  br i1 %41, label %49, label %42

42:                                               ; preds = %_ZN12methodHandleC2EP6ThreadP6Method.exit
  %43 = load i64, ptr @Tier0InvokeNotifyFreqLog, align 8
  %44 = load double, ptr %2, align 8
  %45 = call noundef i64 @_ZN14CompilerConfig15scaled_freq_logEld(i64 noundef %43, double noundef %44) #20
  %notmask = shl nsw i64 -1, %45
  %46 = trunc i64 %notmask to i32
  %47 = xor i32 %46, -1
  %48 = shl i32 %47, 1
  br label %49

49:                                               ; preds = %_ZN12methodHandleC2EP6ThreadP6Method.exit, %42
  %50 = phi i32 [ %48, %42 ], [ -2, %_ZN12methodHandleC2EP6ThreadP6Method.exit ]
  %51 = getelementptr inbounds i8, ptr %0, i64 264
  store i32 %50, ptr %51, align 8
  %52 = load i64, ptr @Tier0BackedgeNotifyFreqLog, align 8
  %53 = load double, ptr %2, align 8
  %54 = call noundef i64 @_ZN14CompilerConfig15scaled_freq_logEld(i64 noundef %52, double noundef %53) #20
  %55 = icmp sgt i64 %54, 63
  br i1 %55, label %63, label %56

56:                                               ; preds = %49
  %57 = load i64, ptr @Tier0BackedgeNotifyFreqLog, align 8
  %58 = load double, ptr %2, align 8
  %59 = call noundef i64 @_ZN14CompilerConfig15scaled_freq_logEld(i64 noundef %57, double noundef %58) #20
  %notmask1 = shl nsw i64 -1, %59
  %60 = trunc i64 %notmask1 to i32
  %61 = xor i32 %60, -1
  %62 = shl i32 %61, 1
  br label %63

63:                                               ; preds = %49, %56
  %64 = phi i32 [ %62, %56 ], [ -2, %49 ]
  %65 = getelementptr inbounds i8, ptr %0, i64 268
  store i32 %64, ptr %65, align 4
  %66 = getelementptr inbounds i8, ptr %0, i64 260
  store i32 0, ptr %66, align 4
  %67 = getelementptr inbounds i8, ptr %0, i64 272
  %68 = getelementptr inbounds i8, ptr %0, i64 208
  call void @llvm.memset.p0.i64(ptr noundef nonnull align 8 dereferenceable(32) %68, i8 0, i64 32, i1 false)
  call void @llvm.memset.p0.i64(ptr noundef nonnull align 8 dereferenceable(20) %67, i8 0, i64 20, i1 false)
  call void @_ZN12methodHandleD1Ev(ptr noundef nonnull align 8 dereferenceable(16) %3) #20
  ret void
}